target datalayout = "e-m:e-p270:32:32-p271:32:32-p272:64:64-i64:64-i128:128-f80:128-n8:16:32:64-S128"
target triple = "x86_64-pc-linux-gnu"

%struct.mbedtls_aes_context = type { i32, ptr, [68 x i32] }

@_ZL6AESFSb = internal global [256 x i8] zeroinitializer, align 16
@_ZL3RT0 = internal global [256 x i32] zeroinitializer, align 16
@_ZL3RT1 = internal global [256 x i32] zeroinitializer, align 16
@_ZL3RT2 = internal global [256 x i32] zeroinitializer, align 16
@_ZL3RT3 = internal global [256 x i32] zeroinitializer, align 16

; Function Attrs: mustprogress uwtable
define hidden void @mbedtls_aes_free(ptr noundef %0) #2 {
  %2 = alloca ptr, align 8
  store ptr %0, ptr %2, align 8, !tbaa !3
  %3 = load ptr, ptr %2, align 8, !tbaa !3
  %4 = icmp eq ptr %3, null
  br i1 %4, label %5, label %6

5:                                                ; preds = %1
  br label %8

6:                                                ; preds = %1
  %7 = load ptr, ptr %2, align 8, !tbaa !3
  call void @mbedtls_platform_zeroize(ptr noundef %7, i64 noundef 288)
  br label %8

8:                                                ; preds = %6, %5
  ret void
}

; Function Attrs: mustprogress nounwind uwtable
define hidden void @mbedtls_aes_init(ptr noundef %0) #0 {
  %2 = alloca ptr, align 8
  store ptr %0, ptr %2, align 8, !tbaa !3
  br label %3

3:                                                ; preds = %1
  br label %4

4:                                                ; preds = %3
  %5 = load ptr, ptr %2, align 8, !tbaa !3
  call void @llvm.memset.p0.i64(ptr align 8 %5, i8 0, i64 288, i1 false)
  ret void
}

; Function Attrs: mustprogress uwtable
define hidden i32 @mbedtls_aes_setkey_dec(ptr noundef %0, ptr noundef %1, i32 noundef %2) #2 {
  %4 = alloca ptr, align 8
  %5 = alloca ptr, align 8
  %6 = alloca i32, align 4
  %7 = alloca i32, align 4
  %8 = alloca i32, align 4
  %9 = alloca i32, align 4
  %10 = alloca %struct.mbedtls_aes_context, align 8
  %11 = alloca ptr, align 8
  %12 = alloca ptr, align 8
  store ptr %0, ptr %4, align 8, !tbaa !3
  store ptr %1, ptr %5, align 8, !tbaa !8
  store i32 %2, ptr %6, align 4, !tbaa !10
  call void @llvm.lifetime.start.p0(i64 4, ptr %7) #5
  call void @llvm.lifetime.start.p0(i64 4, ptr %8) #5
  call void @llvm.lifetime.start.p0(i64 4, ptr %9) #5
  call void @llvm.lifetime.start.p0(i64 288, ptr %10) #5
  call void @llvm.lifetime.start.p0(i64 8, ptr %11) #5
  call void @llvm.lifetime.start.p0(i64 8, ptr %12) #5
  br label %13

13:                                               ; preds = %3
  br label %14

14:                                               ; preds = %13
  br label %15

15:                                               ; preds = %14
  br label %16

16:                                               ; preds = %15
  br label %17

17:                                               ; preds = %16
  br label %18

18:                                               ; preds = %17
  call void @mbedtls_aes_init(ptr noundef %10)
  %19 = load ptr, ptr %4, align 8, !tbaa !3
  %20 = getelementptr inbounds nuw %struct.mbedtls_aes_context, ptr %19, i32 0, i32 2
  %21 = getelementptr inbounds [68 x i32], ptr %20, i64 0, i64 0
  store ptr %21, ptr %11, align 8, !tbaa !15
  %22 = load ptr, ptr %4, align 8, !tbaa !3
  %23 = getelementptr inbounds nuw %struct.mbedtls_aes_context, ptr %22, i32 0, i32 1
  store ptr %21, ptr %23, align 8, !tbaa !16
  %24 = load ptr, ptr %5, align 8, !tbaa !8
  %25 = load i32, ptr %6, align 4, !tbaa !10
  %26 = call i32 @mbedtls_aes_setkey_enc(ptr noundef %10, ptr noundef %24, i32 noundef %25)
  store i32 %26, ptr %9, align 4, !tbaa !10
  %27 = icmp ne i32 %26, 0
  br i1 %27, label %28, label %29

28:                                               ; preds = %18
  br label %155

29:                                               ; preds = %18
  %30 = getelementptr inbounds nuw %struct.mbedtls_aes_context, ptr %10, i32 0, i32 0
  %31 = load i32, ptr %30, align 8, !tbaa !12
  %32 = load ptr, ptr %4, align 8, !tbaa !3
  %33 = getelementptr inbounds nuw %struct.mbedtls_aes_context, ptr %32, i32 0, i32 0
  store i32 %31, ptr %33, align 8, !tbaa !12
  %34 = getelementptr inbounds nuw %struct.mbedtls_aes_context, ptr %10, i32 0, i32 1
  %35 = load ptr, ptr %34, align 8, !tbaa !16
  %36 = getelementptr inbounds nuw %struct.mbedtls_aes_context, ptr %10, i32 0, i32 0
  %37 = load i32, ptr %36, align 8, !tbaa !12
  %38 = mul nsw i32 %37, 4
  %39 = sext i32 %38 to i64
  %40 = getelementptr inbounds i32, ptr %35, i64 %39
  store ptr %40, ptr %12, align 8, !tbaa !15
  %41 = load ptr, ptr %12, align 8, !tbaa !15
  %42 = getelementptr inbounds nuw i32, ptr %41, i32 1
  store ptr %42, ptr %12, align 8, !tbaa !15
  %43 = load i32, ptr %41, align 4, !tbaa !10
  %44 = load ptr, ptr %11, align 8, !tbaa !15
  %45 = getelementptr inbounds nuw i32, ptr %44, i32 1
  store ptr %45, ptr %11, align 8, !tbaa !15
  store i32 %43, ptr %44, align 4, !tbaa !10
  %46 = load ptr, ptr %12, align 8, !tbaa !15
  %47 = getelementptr inbounds nuw i32, ptr %46, i32 1
  store ptr %47, ptr %12, align 8, !tbaa !15
  %48 = load i32, ptr %46, align 4, !tbaa !10
  %49 = load ptr, ptr %11, align 8, !tbaa !15
  %50 = getelementptr inbounds nuw i32, ptr %49, i32 1
  store ptr %50, ptr %11, align 8, !tbaa !15
  store i32 %48, ptr %49, align 4, !tbaa !10
  %51 = load ptr, ptr %12, align 8, !tbaa !15
  %52 = getelementptr inbounds nuw i32, ptr %51, i32 1
  store ptr %52, ptr %12, align 8, !tbaa !15
  %53 = load i32, ptr %51, align 4, !tbaa !10
  %54 = load ptr, ptr %11, align 8, !tbaa !15
  %55 = getelementptr inbounds nuw i32, ptr %54, i32 1
  store ptr %55, ptr %11, align 8, !tbaa !15
  store i32 %53, ptr %54, align 4, !tbaa !10
  %56 = load ptr, ptr %12, align 8, !tbaa !15
  %57 = getelementptr inbounds nuw i32, ptr %56, i32 1
  store ptr %57, ptr %12, align 8, !tbaa !15
  %58 = load i32, ptr %56, align 4, !tbaa !10
  %59 = load ptr, ptr %11, align 8, !tbaa !15
  %60 = getelementptr inbounds nuw i32, ptr %59, i32 1
  store ptr %60, ptr %11, align 8, !tbaa !15
  store i32 %58, ptr %59, align 4, !tbaa !10
  %61 = load ptr, ptr %4, align 8, !tbaa !3
  %62 = getelementptr inbounds nuw %struct.mbedtls_aes_context, ptr %61, i32 0, i32 0
  %63 = load i32, ptr %62, align 8, !tbaa !12
  %64 = sub nsw i32 %63, 1
  store i32 %64, ptr %7, align 4, !tbaa !10
  %65 = load ptr, ptr %12, align 8, !tbaa !15
  %66 = getelementptr inbounds i32, ptr %65, i64 -8
  store ptr %66, ptr %12, align 8, !tbaa !15
  br label %67

67:                                               ; preds = %129, %29
  %68 = load i32, ptr %7, align 4, !tbaa !10
  %69 = icmp sgt i32 %68, 0
  br i1 %69, label %70, label %134

70:                                               ; preds = %67
  store i32 0, ptr %8, align 4, !tbaa !10
  br label %71

71:                                               ; preds = %123, %70
  %72 = load i32, ptr %8, align 4, !tbaa !10
  %73 = icmp slt i32 %72, 4
  br i1 %73, label %74, label %128

74:                                               ; preds = %71
  %75 = load ptr, ptr %12, align 8, !tbaa !15
  %76 = load i32, ptr %75, align 4, !tbaa !10
  %77 = and i32 %76, 255
  %78 = trunc i32 %77 to i8
  %79 = zext i8 %78 to i64
  %80 = getelementptr inbounds nuw [256 x i8], ptr @_ZL6AESFSb, i64 0, i64 %79
  %81 = load i8, ptr %80, align 1, !tbaa !17
  %82 = zext i8 %81 to i64
  %83 = getelementptr inbounds nuw [256 x i32], ptr @_ZL3RT0, i64 0, i64 %82
  %84 = load i32, ptr %83, align 4, !tbaa !10
  %85 = load ptr, ptr %12, align 8, !tbaa !15
  %86 = load i32, ptr %85, align 4, !tbaa !10
  %87 = lshr i32 %86, 8
  %88 = and i32 %87, 255
  %89 = trunc i32 %88 to i8
  %90 = zext i8 %89 to i64
  %91 = getelementptr inbounds nuw [256 x i8], ptr @_ZL6AESFSb, i64 0, i64 %90
  %92 = load i8, ptr %91, align 1, !tbaa !17
  %93 = zext i8 %92 to i64
  %94 = getelementptr inbounds nuw [256 x i32], ptr @_ZL3RT1, i64 0, i64 %93
  %95 = load i32, ptr %94, align 4, !tbaa !10
  %96 = xor i32 %84, %95
  %97 = load ptr, ptr %12, align 8, !tbaa !15
  %98 = load i32, ptr %97, align 4, !tbaa !10
  %99 = lshr i32 %98, 16
  %100 = and i32 %99, 255
  %101 = trunc i32 %100 to i8
  %102 = zext i8 %101 to i64
  %103 = getelementptr inbounds nuw [256 x i8], ptr @_ZL6AESFSb, i64 0, i64 %102
  %104 = load i8, ptr %103, align 1, !tbaa !17
  %105 = zext i8 %104 to i64
  %106 = getelementptr inbounds nuw [256 x i32], ptr @_ZL3RT2, i64 0, i64 %105
  %107 = load i32, ptr %106, align 4, !tbaa !10
  %108 = xor i32 %96, %107
  %109 = load ptr, ptr %12, align 8, !tbaa !15
  %110 = load i32, ptr %109, align 4, !tbaa !10
  %111 = lshr i32 %110, 24
  %112 = and i32 %111, 255
  %113 = trunc i32 %112 to i8
  %114 = zext i8 %113 to i64
  %115 = getelementptr inbounds nuw [256 x i8], ptr @_ZL6AESFSb, i64 0, i64 %114
  %116 = load i8, ptr %115, align 1, !tbaa !17
  %117 = zext i8 %116 to i64
  %118 = getelementptr inbounds nuw [256 x i32], ptr @_ZL3RT3, i64 0, i64 %117
  %119 = load i32, ptr %118, align 4, !tbaa !10
  %120 = xor i32 %108, %119
  %121 = load ptr, ptr %11, align 8, !tbaa !15
  %122 = getelementptr inbounds nuw i32, ptr %121, i32 1
  store ptr %122, ptr %11, align 8, !tbaa !15
  store i32 %120, ptr %121, align 4, !tbaa !10
  br label %123

123:                                              ; preds = %74
  %124 = load i32, ptr %8, align 4, !tbaa !10
  %125 = add nsw i32 %124, 1
  store i32 %125, ptr %8, align 4, !tbaa !10
  %126 = load ptr, ptr %12, align 8, !tbaa !15
  %127 = getelementptr inbounds nuw i32, ptr %126, i32 1
  store ptr %127, ptr %12, align 8, !tbaa !15
  br label %71, !llvm.loop !27

128:                                              ; preds = %71
  br label %129

129:                                              ; preds = %128
  %130 = load i32, ptr %7, align 4, !tbaa !10
  %131 = add nsw i32 %130, -1
  store i32 %131, ptr %7, align 4, !tbaa !10
  %132 = load ptr, ptr %12, align 8, !tbaa !15
  %133 = getelementptr inbounds i32, ptr %132, i64 -8
  store ptr %133, ptr %12, align 8, !tbaa !15
  br label %67, !llvm.loop !28

134:                                              ; preds = %67
  %135 = load ptr, ptr %12, align 8, !tbaa !15
  %136 = getelementptr inbounds nuw i32, ptr %135, i32 1
  store ptr %136, ptr %12, align 8, !tbaa !15
  %137 = load i32, ptr %135, align 4, !tbaa !10
  %138 = load ptr, ptr %11, align 8, !tbaa !15
  %139 = getelementptr inbounds nuw i32, ptr %138, i32 1
  store ptr %139, ptr %11, align 8, !tbaa !15
  store i32 %137, ptr %138, align 4, !tbaa !10
  %140 = load ptr, ptr %12, align 8, !tbaa !15
  %141 = getelementptr inbounds nuw i32, ptr %140, i32 1
  store ptr %141, ptr %12, align 8, !tbaa !15
  %142 = load i32, ptr %140, align 4, !tbaa !10
  %143 = load ptr, ptr %11, align 8, !tbaa !15
  %144 = getelementptr inbounds nuw i32, ptr %143, i32 1
  store ptr %144, ptr %11, align 8, !tbaa !15
  store i32 %142, ptr %143, align 4, !tbaa !10
  %145 = load ptr, ptr %12, align 8, !tbaa !15
  %146 = getelementptr inbounds nuw i32, ptr %145, i32 1
  store ptr %146, ptr %12, align 8, !tbaa !15
  %147 = load i32, ptr %145, align 4, !tbaa !10
  %148 = load ptr, ptr %11, align 8, !tbaa !15
  %149 = getelementptr inbounds nuw i32, ptr %148, i32 1
  store ptr %149, ptr %11, align 8, !tbaa !15
  store i32 %147, ptr %148, align 4, !tbaa !10
  %150 = load ptr, ptr %12, align 8, !tbaa !15
  %151 = getelementptr inbounds nuw i32, ptr %150, i32 1
  store ptr %151, ptr %12, align 8, !tbaa !15
  %152 = load i32, ptr %150, align 4, !tbaa !10
  %153 = load ptr, ptr %11, align 8, !tbaa !15
  %154 = getelementptr inbounds nuw i32, ptr %153, i32 1
  store ptr %154, ptr %11, align 8, !tbaa !15
  store i32 %152, ptr %153, align 4, !tbaa !10
  br label %155

155:                                              ; preds = %134, %28
  call void @mbedtls_aes_free(ptr noundef %10)
  %156 = load i32, ptr %9, align 4, !tbaa !10
  call void @llvm.lifetime.end.p0(i64 8, ptr %12) #5
  call void @llvm.lifetime.end.p0(i64 8, ptr %11) #5
  call void @llvm.lifetime.end.p0(i64 288, ptr %10) #5
  call void @llvm.lifetime.end.p0(i64 4, ptr %9) #5
  call void @llvm.lifetime.end.p0(i64 4, ptr %8) #5
  call void @llvm.lifetime.end.p0(i64 4, ptr %7) #5
  ret i32 %156
}