; Function Attrs: mustprogress uwtable
define hidden range(i32 -32, 1) i32 @mbedtls_aes_setkey_dec(ptr noundef %0, ptr noundef readonly captures(none) %1, i32 noundef %2) local_unnamed_addr #2 {
  %4 = alloca %struct.mbedtls_aes_context, align 8
  call void @llvm.lifetime.start.p0(i64 288, ptr nonnull %4) #7
  call void @llvm.memset.p0.i64(ptr noundef nonnull align 8 dereferenceable(288) %4, i8 0, i64 288, i1 false)
  %5 = getelementptr inbounds nuw i8, ptr %0, i64 16
  %6 = getelementptr inbounds nuw i8, ptr %0, i64 8
  store ptr %5, ptr %6, align 8, !tbaa !10
  %7 = call i32 @mbedtls_aes_setkey_enc(ptr noundef nonnull %4, ptr noundef %1, i32 noundef %2)
  %.not = icmp eq i32 %7, 0
  br i1 %.not, label %8, label %79

8:                                                ; preds = %3
  %9 = load i32, ptr %4, align 8, !tbaa !3
  store i32 %9, ptr %0, align 8, !tbaa !3
  %10 = getelementptr inbounds nuw i8, ptr %4, i64 8
  %11 = load ptr, ptr %10, align 8, !tbaa !10
  %12 = shl nsw i32 %9, 2
  %13 = sext i32 %12 to i64
  %14 = getelementptr inbounds i32, ptr %11, i64 %13
  %15 = getelementptr inbounds nuw i8, ptr %14, i64 4
  %16 = load i32, ptr %14, align 4, !tbaa !11
  %17 = getelementptr inbounds nuw i8, ptr %0, i64 20
  store i32 %16, ptr %5, align 4, !tbaa !11
  %18 = getelementptr inbounds nuw i8, ptr %14, i64 8
  %19 = load i32, ptr %15, align 4, !tbaa !11
  %20 = getelementptr inbounds nuw i8, ptr %0, i64 24
  store i32 %19, ptr %17, align 4, !tbaa !11
  %21 = getelementptr inbounds nuw i8, ptr %14, i64 12
  %22 = load i32, ptr %18, align 4, !tbaa !11
  %23 = getelementptr inbounds nuw i8, ptr %0, i64 28
  store i32 %22, ptr %20, align 4, !tbaa !11
  %24 = load i32, ptr %21, align 4, !tbaa !11
  %25 = getelementptr inbounds nuw i8, ptr %0, i64 32
  store i32 %24, ptr %23, align 4, !tbaa !11
  %26 = getelementptr inbounds i8, ptr %14, i64 -16
  %27 = icmp sgt i32 %9, 1
  br i1 %27, label %.preheader, label %._crit_edge

.preheader:                                       ; preds = %8, %66
  %.03644.in = phi i32 [ %.03644, %66 ], [ %9, %8 ]
  %.043 = phi ptr [ %67, %66 ], [ %26, %8 ]
  %.03442 = phi ptr [ %63, %66 ], [ %25, %8 ]
  br label %28

28:                                               ; preds = %.preheader, %28
  %.140 = phi ptr [ %.043, %.preheader ], [ %65, %28 ]
  %.13539 = phi ptr [ %.03442, %.preheader ], [ %63, %28 ]
  %.03738 = phi i32 [ 0, %.preheader ], [ %64, %28 ]
  %29 = load i32, ptr %.140, align 4, !tbaa !11
  %30 = and i32 %29, 255
  %31 = zext nneg i32 %30 to i64
  %32 = getelementptr inbounds nuw [256 x i8], ptr @_ZL6AESFSb, i64 0, i64 %31
  %33 = load i8, ptr %32, align 1, !tbaa !15
  %34 = zext i8 %33 to i64
  %35 = getelementptr inbounds nuw [256 x i32], ptr @_ZL3RT0, i64 0, i64 %34
  %36 = load i32, ptr %35, align 4, !tbaa !11
  %37 = lshr i32 %29, 8
  %38 = and i32 %37, 255
  %39 = zext nneg i32 %38 to i64
  %40 = getelementptr inbounds nuw [256 x i8], ptr @_ZL6AESFSb, i64 0, i64 %39
  %41 = load i8, ptr %40, align 1, !tbaa !15
  %42 = zext i8 %41 to i64
  %43 = getelementptr inbounds nuw [256 x i32], ptr @_ZL3RT1, i64 0, i64 %42
  %44 = load i32, ptr %43, align 4, !tbaa !11
  %45 = xor i32 %44, %36
  %46 = lshr i32 %29, 16
  %47 = and i32 %46, 255
  %48 = zext nneg i32 %47 to i64
  %49 = getelementptr inbounds nuw [256 x i8], ptr @_ZL6AESFSb, i64 0, i64 %48
  %50 = load i8, ptr %49, align 1, !tbaa !15
  %51 = zext i8 %50 to i64
  %52 = getelementptr inbounds nuw [256 x i32], ptr @_ZL3RT2, i64 0, i64 %51
  %53 = load i32, ptr %52, align 4, !tbaa !11
  %54 = xor i32 %45, %53
  %55 = lshr i32 %29, 24
  %56 = zext nneg i32 %55 to i64
  %57 = getelementptr inbounds nuw [256 x i8], ptr @_ZL6AESFSb, i64 0, i64 %56
  %58 = load i8, ptr %57, align 1, !tbaa !15
  %59 = zext i8 %58 to i64
  %60 = getelementptr inbounds nuw [256 x i32], ptr @_ZL3RT3, i64 0, i64 %59
  %61 = load i32, ptr %60, align 4, !tbaa !11
  %62 = xor i32 %54, %61
  %63 = getelementptr inbounds nuw i8, ptr %.13539, i64 4
  store i32 %62, ptr %.13539, align 4, !tbaa !11
  %64 = add nuw nsw i32 %.03738, 1
  %65 = getelementptr inbounds nuw i8, ptr %.140, i64 4
  %exitcond.not = icmp eq i32 %64, 4
  br i1 %exitcond.not, label %66, label %28, !llvm.loop !22

66:                                               ; preds = %28
  %.03644 = add nsw i32 %.03644.in, -1
  %67 = getelementptr inbounds i8, ptr %.140, i64 -28
  %68 = icmp sgt i32 %.03644.in, 2
  br i1 %68, label %.preheader, label %._crit_edge, !llvm.loop !23

._crit_edge:                                      ; preds = %66, %8
  %.034.lcssa = phi ptr [ %25, %8 ], [ %63, %66 ]
  %.0.lcssa = phi ptr [ %26, %8 ], [ %67, %66 ]
  %69 = getelementptr inbounds nuw i8, ptr %.0.lcssa, i64 4
  %70 = load i32, ptr %.0.lcssa, align 4, !tbaa !11
  %71 = getelementptr inbounds nuw i8, ptr %.034.lcssa, i64 4
  store i32 %70, ptr %.034.lcssa, align 4, !tbaa !11
  %72 = getelementptr inbounds nuw i8, ptr %.0.lcssa, i64 8
  %73 = load i32, ptr %69, align 4, !tbaa !11
  %74 = getelementptr inbounds nuw i8, ptr %.034.lcssa, i64 8
  store i32 %73, ptr %71, align 4, !tbaa !11
  %75 = getelementptr inbounds nuw i8, ptr %.0.lcssa, i64 12
  %76 = load i32, ptr %72, align 4, !tbaa !11
  %77 = getelementptr inbounds nuw i8, ptr %.034.lcssa, i64 12
  store i32 %76, ptr %74, align 4, !tbaa !11
  %78 = load i32, ptr %75, align 4, !tbaa !11
  store i32 %78, ptr %77, align 4, !tbaa !11
  br label %79

79:                                               ; preds = %3, %._crit_edge
  call void @mbedtls_platform_zeroize(ptr noundef nonnull %4, i64 noundef 288)
  call void @llvm.lifetime.end.p0(i64 288, ptr nonnull %4) #7
  ret i32 %7
}